target datalayout = "e-m:e-p270:32:32-p271:32:32-p272:64:64-i64:64-i128:128-f80:128-n8:16:32:64-S128"
target triple = "x86_64-pc-linux-gnu"

%"class.icu_77::number::impl::DecimalQuantity" = type <{ %"class.icu_77::IFixedDecimal", i8, [3 x i8], i32, i32, i8, i8, [2 x i8], double, i32, i32, i32, i32, %union.anon, i8, i8, [6 x i8] }>
%"class.icu_77::IFixedDecimal" = type { ptr }
%union.anon = type { %struct.anon }
%struct.anon = type { ptr, i32 }

; Function Attrs: mustprogress uwtable
define void @_ZN6icu_776number4impl15DecimalQuantity14ensureCapacityEv(ptr noundef nonnull align 8 dereferenceable(66) %0) #1 align 2 {
  %2 = alloca ptr, align 8
  store ptr %0, ptr %2, align 8, !tbaa !25
  %3 = load ptr, ptr %2, align 8
  call void @_ZN6icu_776number4impl15DecimalQuantity14ensureCapacityEi(ptr noundef nonnull align 8 dereferenceable(66) %3, i32 noundef 40)
  ret void
}

; Function Attrs: mustprogress uwtable
define void @_ZN6icu_776number4impl15DecimalQuantity13switchStorageEv(ptr noundef nonnull align 8 dereferenceable(66) %0) #1 align 2 {
  %2 = alloca ptr, align 8
  %3 = alloca i64, align 8
  %4 = alloca i32, align 4
  %5 = alloca i64, align 8
  %6 = alloca i32, align 4
  store ptr %0, ptr %2, align 8, !tbaa !25
  %7 = load ptr, ptr %2, align 8
  %8 = getelementptr inbounds nuw %"class.icu_77::number::impl::DecimalQuantity", ptr %7, i32 0, i32 14
  %9 = load i8, ptr %8, align 8, !tbaa !37, !range !40, !noundef !41
  %10 = trunc i8 %9 to i1
  br i1 %10, label %11, label %44

11:                                               ; preds = %1
  call void @llvm.lifetime.start.p0(i64 8, ptr %3) #14
  store i64 0, ptr %3, align 8, !tbaa !18
  call void @llvm.lifetime.start.p0(i64 4, ptr %4) #14
  %12 = getelementptr inbounds nuw %"class.icu_77::number::impl::DecimalQuantity", ptr %7, i32 0, i32 4
  %13 = load i32, ptr %12, align 8, !tbaa !44
  %14 = sub nsw i32 %13, 1
  store i32 %14, ptr %4, align 4, !tbaa !14
  br label %15

15:                                               ; preds = %32, %11
  %16 = load i32, ptr %4, align 4, !tbaa !14
  %17 = icmp sge i32 %16, 0
  br i1 %17, label %19, label %18

18:                                               ; preds = %15
  call void @llvm.lifetime.end.p0(i64 4, ptr %4) #14
  br label %35

19:                                               ; preds = %15
  %20 = load i64, ptr %3, align 8, !tbaa !18
  %21 = shl i64 %20, 4
  store i64 %21, ptr %3, align 8, !tbaa !18
  %22 = getelementptr inbounds nuw %"class.icu_77::number::impl::DecimalQuantity", ptr %7, i32 0, i32 13
  %23 = getelementptr inbounds nuw %struct.anon, ptr %22, i32 0, i32 0
  %24 = load ptr, ptr %23, align 8, !tbaa !42
  %25 = load i32, ptr %4, align 4, !tbaa !14
  %26 = sext i32 %25 to i64
  %27 = getelementptr inbounds i8, ptr %24, i64 %26
  %28 = load i8, ptr %27, align 1, !tbaa !42
  %29 = sext i8 %28 to i64
  %30 = load i64, ptr %3, align 8, !tbaa !18
  %31 = or i64 %30, %29
  store i64 %31, ptr %3, align 8, !tbaa !18
  br label %32

32:                                               ; preds = %19
  %33 = load i32, ptr %4, align 4, !tbaa !14
  %34 = add nsw i32 %33, -1
  store i32 %34, ptr %4, align 4, !tbaa !14
  br label %15, !llvm.loop !129

35:                                               ; preds = %18
  %36 = getelementptr inbounds nuw %"class.icu_77::number::impl::DecimalQuantity", ptr %7, i32 0, i32 13
  %37 = getelementptr inbounds nuw %struct.anon, ptr %36, i32 0, i32 0
  %38 = load ptr, ptr %37, align 8, !tbaa !42
  call void @uprv_free_77(ptr noundef %38)
  %39 = getelementptr inbounds nuw %"class.icu_77::number::impl::DecimalQuantity", ptr %7, i32 0, i32 13
  %40 = getelementptr inbounds nuw %struct.anon, ptr %39, i32 0, i32 0
  store ptr null, ptr %40, align 8, !tbaa !42
  %41 = load i64, ptr %3, align 8, !tbaa !18
  %42 = getelementptr inbounds nuw %"class.icu_77::number::impl::DecimalQuantity", ptr %7, i32 0, i32 13
  store i64 %41, ptr %42, align 8, !tbaa !42
  %43 = getelementptr inbounds nuw %"class.icu_77::number::impl::DecimalQuantity", ptr %7, i32 0, i32 14
  store i8 0, ptr %43, align 8, !tbaa !37
  call void @llvm.lifetime.end.p0(i64 8, ptr %3) #14
  br label %69

44:                                               ; preds = %1
  call void @llvm.lifetime.start.p0(i64 8, ptr %5) #14
  %45 = getelementptr inbounds nuw %"class.icu_77::number::impl::DecimalQuantity", ptr %7, i32 0, i32 13
  %46 = load i64, ptr %45, align 8, !tbaa !42
  store i64 %46, ptr %5, align 8, !tbaa !18
  call void @_ZN6icu_776number4impl15DecimalQuantity14ensureCapacityEv(ptr noundef nonnull align 8 dereferenceable(66) %7)
  call void @llvm.lifetime.start.p0(i64 4, ptr %6) #14
  store i32 0, ptr %6, align 4, !tbaa !14
  br label %47

47:                                               ; preds = %65, %44
  %48 = load i32, ptr %6, align 4, !tbaa !14
  %49 = getelementptr inbounds nuw %"class.icu_77::number::impl::DecimalQuantity", ptr %7, i32 0, i32 4
  %50 = load i32, ptr %49, align 8, !tbaa !44
  %51 = icmp slt i32 %48, %50
  br i1 %51, label %53, label %52

52:                                               ; preds = %47
  call void @llvm.lifetime.end.p0(i64 4, ptr %6) #14
  br label %68

53:                                               ; preds = %47
  %54 = load i64, ptr %5, align 8, !tbaa !18
  %55 = and i64 %54, 15
  %56 = trunc i64 %55 to i8
  %57 = getelementptr inbounds nuw %"class.icu_77::number::impl::DecimalQuantity", ptr %7, i32 0, i32 13
  %58 = getelementptr inbounds nuw %struct.anon, ptr %57, i32 0, i32 0
  %59 = load ptr, ptr %58, align 8, !tbaa !42
  %60 = load i32, ptr %6, align 4, !tbaa !14
  %61 = sext i32 %60 to i64
  %62 = getelementptr inbounds i8, ptr %59, i64 %61
  store i8 %56, ptr %62, align 1, !tbaa !42
  %63 = load i64, ptr %5, align 8, !tbaa !18
  %64 = lshr i64 %63, 4
  store i64 %64, ptr %5, align 8, !tbaa !18
  br label %65

65:                                               ; preds = %53
  %66 = load i32, ptr %6, align 4, !tbaa !14
  %67 = add nsw i32 %66, 1
  store i32 %67, ptr %6, align 4, !tbaa !14
  br label %47, !llvm.loop !130

68:                                               ; preds = %52
  call void @llvm.lifetime.end.p0(i64 8, ptr %5) #14
  br label %69

69:                                               ; preds = %68, %35
  ret void
}

; Function Attrs: mustprogress uwtable
define void @_ZN6icu_776number4impl15DecimalQuantity14ensureCapacityEi(ptr noundef nonnull align 8 dereferenceable(66) %0, i32 noundef %1) #1 align 2 {
  %3 = alloca ptr, align 8
  %4 = alloca i32, align 4
  %5 = alloca i32, align 4
  %6 = alloca ptr, align 8
  store ptr %0, ptr %3, align 8, !tbaa !25
  store i32 %1, ptr %4, align 4, !tbaa !14
  %7 = load ptr, ptr %3, align 8
  %8 = load i32, ptr %4, align 4, !tbaa !14
  %9 = icmp eq i32 %8, 0
  br i1 %9, label %10, label %11

10:                                               ; preds = %2
  br label %83

11:                                               ; preds = %2
  call void @llvm.lifetime.start.p0(i64 4, ptr %5) #14
  %12 = getelementptr inbounds nuw %"class.icu_77::number::impl::DecimalQuantity", ptr %7, i32 0, i32 14
  %13 = load i8, ptr %12, align 8, !tbaa !37, !range !40, !noundef !41
  %14 = trunc i8 %13 to i1
  br i1 %14, label %15, label %19

15:                                               ; preds = %11
  %16 = getelementptr inbounds nuw %"class.icu_77::number::impl::DecimalQuantity", ptr %7, i32 0, i32 13
  %17 = getelementptr inbounds nuw %struct.anon, ptr %16, i32 0, i32 1
  %18 = load i32, ptr %17, align 8, !tbaa !42
  br label %20

19:                                               ; preds = %11
  br label %20

20:                                               ; preds = %19, %15
  %21 = phi i32 [ %18, %15 ], [ 0, %19 ]
  store i32 %21, ptr %5, align 4, !tbaa !14
  %22 = getelementptr inbounds nuw %"class.icu_77::number::impl::DecimalQuantity", ptr %7, i32 0, i32 14
  %23 = load i8, ptr %22, align 8, !tbaa !37, !range !40, !noundef !41
  %24 = trunc i8 %23 to i1
  br i1 %24, label %41, label %25

25:                                               ; preds = %20
  %26 = load i32, ptr %4, align 4, !tbaa !14
  %27 = sext i32 %26 to i64
  %28 = mul i64 %27, 1
  %29 = call noalias ptr @uprv_malloc_77(i64 noundef %28) #15
  %30 = getelementptr inbounds nuw %"class.icu_77::number::impl::DecimalQuantity", ptr %7, i32 0, i32 13
  %31 = getelementptr inbounds nuw %struct.anon, ptr %30, i32 0, i32 0
  store ptr %29, ptr %31, align 8, !tbaa !42
  %32 = load i32, ptr %4, align 4, !tbaa !14
  %33 = getelementptr inbounds nuw %"class.icu_77::number::impl::DecimalQuantity", ptr %7, i32 0, i32 13
  %34 = getelementptr inbounds nuw %struct.anon, ptr %33, i32 0, i32 1
  store i32 %32, ptr %34, align 8, !tbaa !42
  %35 = getelementptr inbounds nuw %"class.icu_77::number::impl::DecimalQuantity", ptr %7, i32 0, i32 13
  %36 = getelementptr inbounds nuw %struct.anon, ptr %35, i32 0, i32 0
  %37 = load ptr, ptr %36, align 8, !tbaa !42
  %38 = load i32, ptr %4, align 4, !tbaa !14
  %39 = sext i32 %38 to i64
  %40 = mul i64 %39, 1
  call void @llvm.memset.p0.i64(ptr align 1 %37, i8 0, i64 %40, i1 false)
  br label %81

41:                                               ; preds = %20
  %42 = load i32, ptr %5, align 4, !tbaa !14
  %43 = load i32, ptr %4, align 4, !tbaa !14
  %44 = icmp slt i32 %42, %43
  br i1 %44, label %45, label %80

45:                                               ; preds = %41
  call void @llvm.lifetime.start.p0(i64 8, ptr %6) #14
  %46 = load i32, ptr %4, align 4, !tbaa !14
  %47 = mul nsw i32 %46, 2
  %48 = sext i32 %47 to i64
  %49 = mul i64 %48, 1
  %50 = call noalias ptr @uprv_malloc_77(i64 noundef %49) #15
  store ptr %50, ptr %6, align 8, !tbaa !17
  br label %51

51:                                               ; preds = %45
  %52 = load ptr, ptr %6, align 8, !tbaa !17
  %53 = getelementptr inbounds nuw %"class.icu_77::number::impl::DecimalQuantity", ptr %7, i32 0, i32 13
  %54 = getelementptr inbounds nuw %struct.anon, ptr %53, i32 0, i32 0
  %55 = load ptr, ptr %54, align 8, !tbaa !42
  %56 = load i32, ptr %5, align 4, !tbaa !14
  %57 = sext i32 %56 to i64
  %58 = mul i64 %57, 1
  call void @llvm.memcpy.p0.p0.i64(ptr align 1 %52, ptr align 1 %55, i64 %58, i1 false)
  br label %59

59:                                               ; preds = %51
  br label %60

60:                                               ; preds = %59
  %61 = load ptr, ptr %6, align 8, !tbaa !17
  %62 = load i32, ptr %5, align 4, !tbaa !14
  %63 = sext i32 %62 to i64
  %64 = getelementptr inbounds i8, ptr %61, i64 %63
  %65 = load i32, ptr %4, align 4, !tbaa !14
  %66 = load i32, ptr %5, align 4, !tbaa !14
  %67 = sub nsw i32 %65, %66
  %68 = sext i32 %67 to i64
  %69 = mul i64 %68, 1
  call void @llvm.memset.p0.i64(ptr align 1 %64, i8 0, i64 %69, i1 false)
  %70 = getelementptr inbounds nuw %"class.icu_77::number::impl::DecimalQuantity", ptr %7, i32 0, i32 13
  %71 = getelementptr inbounds nuw %struct.anon, ptr %70, i32 0, i32 0
  %72 = load ptr, ptr %71, align 8, !tbaa !42
  call void @uprv_free_77(ptr noundef %72)
  %73 = load ptr, ptr %6, align 8, !tbaa !17
  %74 = getelementptr inbounds nuw %"class.icu_77::number::impl::DecimalQuantity", ptr %7, i32 0, i32 13
  %75 = getelementptr inbounds nuw %struct.anon, ptr %74, i32 0, i32 0
  store ptr %73, ptr %75, align 8, !tbaa !42
  %76 = load i32, ptr %4, align 4, !tbaa !14
  %77 = mul nsw i32 %76, 2
  %78 = getelementptr inbounds nuw %"class.icu_77::number::impl::DecimalQuantity", ptr %7, i32 0, i32 13
  %79 = getelementptr inbounds nuw %struct.anon, ptr %78, i32 0, i32 1
  store i32 %77, ptr %79, align 8, !tbaa !42
  call void @llvm.lifetime.end.p0(i64 8, ptr %6) #14
  br label %80

80:                                               ; preds = %60, %41
  br label %81

81:                                               ; preds = %80, %25
  %82 = getelementptr inbounds nuw %"class.icu_77::number::impl::DecimalQuantity", ptr %7, i32 0, i32 14
  store i8 1, ptr %82, align 8, !tbaa !37
  call void @llvm.lifetime.end.p0(i64 4, ptr %5) #14
  br label %83

83:                                               ; preds = %81, %10
  ret void
}

; Function Attrs: mustprogress uwtable
define void @_ZN6icu_776number4impl15DecimalQuantity11setDigitPosEia(ptr noundef nonnull align 8 dereferenceable(66) %0, i32 noundef %1, i8 noundef signext %2) #1 align 2 {
  %4 = alloca ptr, align 8
  %5 = alloca i32, align 4
  %6 = alloca i8, align 1
  %7 = alloca i32, align 4
  store ptr %0, ptr %4, align 8, !tbaa !25
  store i32 %1, ptr %5, align 4, !tbaa !14
  store i8 %2, ptr %6, align 1, !tbaa !42
  %8 = load ptr, ptr %4, align 8
  %9 = getelementptr inbounds nuw %"class.icu_77::number::impl::DecimalQuantity", ptr %8, i32 0, i32 14
  %10 = load i8, ptr %9, align 8, !tbaa !37, !range !40, !noundef !41
  %11 = trunc i8 %10 to i1
  br i1 %11, label %12, label %22

12:                                               ; preds = %3
  %13 = load i32, ptr %5, align 4, !tbaa !14
  %14 = add nsw i32 %13, 1
  call void @_ZN6icu_776number4impl15DecimalQuantity14ensureCapacityEi(ptr noundef nonnull align 8 dereferenceable(66) %8, i32 noundef %14)
  %15 = load i8, ptr %6, align 1, !tbaa !42
  %16 = getelementptr inbounds nuw %"class.icu_77::number::impl::DecimalQuantity", ptr %8, i32 0, i32 13
  %17 = getelementptr inbounds nuw %struct.anon, ptr %16, i32 0, i32 0
  %18 = load ptr, ptr %17, align 8, !tbaa !42
  %19 = load i32, ptr %5, align 4, !tbaa !14
  %20 = sext i32 %19 to i64
  %21 = getelementptr inbounds i8, ptr %18, i64 %20
  store i8 %15, ptr %21, align 1, !tbaa !42
  br label %53

22:                                               ; preds = %3
  %23 = load i32, ptr %5, align 4, !tbaa !14
  %24 = icmp sge i32 %23, 16
  br i1 %24, label %25, label %35

25:                                               ; preds = %22
  call void @_ZN6icu_776number4impl15DecimalQuantity13switchStorageEv(ptr noundef nonnull align 8 dereferenceable(66) %8)
  %26 = load i32, ptr %5, align 4, !tbaa !14
  %27 = add nsw i32 %26, 1
  call void @_ZN6icu_776number4impl15DecimalQuantity14ensureCapacityEi(ptr noundef nonnull align 8 dereferenceable(66) %8, i32 noundef %27)
  %28 = load i8, ptr %6, align 1, !tbaa !42
  %29 = getelementptr inbounds nuw %"class.icu_77::number::impl::DecimalQuantity", ptr %8, i32 0, i32 13
  %30 = getelementptr inbounds nuw %struct.anon, ptr %29, i32 0, i32 0
  %31 = load ptr, ptr %30, align 8, !tbaa !42
  %32 = load i32, ptr %5, align 4, !tbaa !14
  %33 = sext i32 %32 to i64
  %34 = getelementptr inbounds i8, ptr %31, i64 %33
  store i8 %28, ptr %34, align 1, !tbaa !42
  br label %52

35:                                               ; preds = %22
  call void @llvm.lifetime.start.p0(i64 4, ptr %7) #14
  %36 = load i32, ptr %5, align 4, !tbaa !14
  %37 = mul nsw i32 %36, 4
  store i32 %37, ptr %7, align 4, !tbaa !14
  %38 = getelementptr inbounds nuw %"class.icu_77::number::impl::DecimalQuantity", ptr %8, i32 0, i32 13
  %39 = load i64, ptr %38, align 8, !tbaa !42
  %40 = load i32, ptr %7, align 4, !tbaa !14
  %41 = zext i32 %40 to i64
  %42 = shl i64 15, %41
  %43 = xor i64 %42, -1
  %44 = and i64 %39, %43
  %45 = load i8, ptr %6, align 1, !tbaa !42
  %46 = sext i8 %45 to i64
  %47 = load i32, ptr %7, align 4, !tbaa !14
  %48 = zext i32 %47 to i64
  %49 = shl i64 %46, %48
  %50 = or i64 %44, %49
  %51 = getelementptr inbounds nuw %"class.icu_77::number::impl::DecimalQuantity", ptr %8, i32 0, i32 13
  store i64 %50, ptr %51, align 8, !tbaa !42
  call void @llvm.lifetime.end.p0(i64 4, ptr %7) #14
  br label %52

52:                                               ; preds = %35, %25
  br label %53

53:                                               ; preds = %52, %12
  ret void
}