; Function Attrs: mustprogress uwtable
define void @_ZN6icu_776number4impl15DecimalQuantity11setDigitPosEia(ptr noundef nonnull align 8 captures(none) dereferenceable(66) %0, i32 noundef %1, i8 noundef signext %2) local_unnamed_addr #1 align 2 {
  %4 = getelementptr inbounds nuw i8, ptr %0, i64 64
  %5 = load i8, ptr %4, align 8, !tbaa !22, !range !24, !noundef !25
  %6 = trunc nuw i8 %5 to i1
  br i1 %6, label %7, label %28

7:                                                ; preds = %3
  %8 = add nsw i32 %1, 1
  %9 = icmp eq i32 %8, 0
  br i1 %9, label %_ZN6icu_776number4impl15DecimalQuantity14ensureCapacityEi.exit, label %10

10:                                               ; preds = %7
  %11 = getelementptr inbounds nuw i8, ptr %0, i64 56
  %12 = load i32, ptr %11, align 8
  %.not12 = icmp sgt i32 %12, %1
  br i1 %.not12, label %23, label %13

13:                                               ; preds = %10
  %14 = shl nsw i32 %8, 1
  %15 = sext i32 %14 to i64
  %16 = tail call noalias ptr @uprv_malloc_77(i64 noundef %15) #27
  %17 = getelementptr inbounds nuw i8, ptr %0, i64 48
  %18 = load ptr, ptr %17, align 8, !tbaa !26
  %19 = sext i32 %12 to i64
  tail call void @llvm.memcpy.p0.p0.i64(ptr align 1 %16, ptr align 1 %18, i64 %19, i1 false)
  %20 = getelementptr inbounds i8, ptr %16, i64 %19
  %21 = sub nsw i32 %8, %12
  %22 = sext i32 %21 to i64
  tail call void @llvm.memset.p0.i64(ptr align 1 %20, i8 0, i64 %22, i1 false)
  tail call void @uprv_free_77(ptr noundef %18)
  store ptr %16, ptr %17, align 8, !tbaa !26
  store i32 %14, ptr %11, align 8, !tbaa !26
  br label %23

23:                                               ; preds = %13, %10
  store i8 1, ptr %4, align 8, !tbaa !22
  br label %_ZN6icu_776number4impl15DecimalQuantity14ensureCapacityEi.exit

_ZN6icu_776number4impl15DecimalQuantity14ensureCapacityEi.exit: ; preds = %7, %23
  %24 = getelementptr inbounds nuw i8, ptr %0, i64 48
  %25 = load ptr, ptr %24, align 8, !tbaa !26
  %26 = sext i32 %1 to i64
  %27 = getelementptr inbounds i8, ptr %25, i64 %26
  store i8 %2, ptr %27, align 1, !tbaa !26
  br label %77

28:                                               ; preds = %3
  %29 = icmp sgt i32 %1, 15
  br i1 %29, label %_ZN6icu_776number4impl15DecimalQuantity14ensureCapacityEv.exit.i, label %66

_ZN6icu_776number4impl15DecimalQuantity14ensureCapacityEv.exit.i: ; preds = %28
  %30 = getelementptr inbounds nuw i8, ptr %0, i64 48
  %31 = load i64, ptr %30, align 8, !tbaa !26
  %32 = getelementptr inbounds nuw i8, ptr %0, i64 56
  %33 = tail call noalias dereferenceable_or_null(40) ptr @uprv_malloc_77(i64 noundef 40) #27
  store ptr %33, ptr %30, align 8, !tbaa !26
  store i32 40, ptr %32, align 8, !tbaa !26
  tail call void @llvm.memset.p0.i64(ptr noundef nonnull align 1 dereferenceable(40) %33, i8 0, i64 40, i1 false)
  store i8 1, ptr %4, align 8, !tbaa !22
  %34 = getelementptr inbounds nuw i8, ptr %0, i64 16
  %35 = load i32, ptr %34, align 8, !tbaa !28
  %36 = icmp sgt i32 %35, 0
  br i1 %36, label %.lr.ph.i, label %_ZN6icu_776number4impl15DecimalQuantity13switchStorageEv.exit.thread

_ZN6icu_776number4impl15DecimalQuantity13switchStorageEv.exit.thread: ; preds = %_ZN6icu_776number4impl15DecimalQuantity14ensureCapacityEv.exit.i
  %37 = add nuw nsw i32 %1, 1
  br label %51

.lr.ph.i:                                         ; preds = %_ZN6icu_776number4impl15DecimalQuantity14ensureCapacityEv.exit.i, %.lr.ph.i
  %indvars.iv.i = phi i64 [ %indvars.iv.next.i, %.lr.ph.i ], [ 0, %_ZN6icu_776number4impl15DecimalQuantity14ensureCapacityEv.exit.i ]
  %.01114.i = phi i64 [ %42, %.lr.ph.i ], [ %31, %_ZN6icu_776number4impl15DecimalQuantity14ensureCapacityEv.exit.i ]
  %38 = trunc i64 %.01114.i to i8
  %39 = and i8 %38, 15
  %40 = load ptr, ptr %30, align 8, !tbaa !26
  %41 = getelementptr inbounds nuw i8, ptr %40, i64 %indvars.iv.i
  store i8 %39, ptr %41, align 1, !tbaa !26
  %42 = lshr i64 %.01114.i, 4
  %indvars.iv.next.i = add nuw nsw i64 %indvars.iv.i, 1
  %43 = load i32, ptr %34, align 8, !tbaa !28
  %44 = sext i32 %43 to i64
  %45 = icmp slt i64 %indvars.iv.next.i, %44
  br i1 %45, label %.lr.ph.i, label %_ZN6icu_776number4impl15DecimalQuantity13switchStorageEv.exit, !llvm.loop !43

_ZN6icu_776number4impl15DecimalQuantity13switchStorageEv.exit: ; preds = %.lr.ph.i
  %.pre = load i8, ptr %4, align 8, !tbaa !22, !range !24
  %.pre13 = load i32, ptr %32, align 8
  %46 = trunc nuw i8 %.pre to i1
  %47 = add nuw nsw i32 %1, 1
  br i1 %46, label %51, label %48

48:                                               ; preds = %_ZN6icu_776number4impl15DecimalQuantity13switchStorageEv.exit
  %49 = zext nneg i32 %47 to i64
  %50 = tail call noalias ptr @uprv_malloc_77(i64 noundef %49) #27
  store ptr %50, ptr %30, align 8, !tbaa !26
  store i32 %47, ptr %32, align 8, !tbaa !26
  tail call void @llvm.memset.p0.i64(ptr noundef nonnull align 1 dereferenceable(1) %50, i8 0, i64 %49, i1 false)
  br label %_ZN6icu_776number4impl15DecimalQuantity14ensureCapacityEi.exit11

51:                                               ; preds = %_ZN6icu_776number4impl15DecimalQuantity13switchStorageEv.exit.thread, %_ZN6icu_776number4impl15DecimalQuantity13switchStorageEv.exit
  %52 = phi i32 [ %37, %_ZN6icu_776number4impl15DecimalQuantity13switchStorageEv.exit.thread ], [ %47, %_ZN6icu_776number4impl15DecimalQuantity13switchStorageEv.exit ]
  %53 = phi i32 [ 40, %_ZN6icu_776number4impl15DecimalQuantity13switchStorageEv.exit.thread ], [ %.pre13, %_ZN6icu_776number4impl15DecimalQuantity13switchStorageEv.exit ]
  %.not = icmp sgt i32 %53, %1
  br i1 %.not, label %._ZN6icu_776number4impl15DecimalQuantity14ensureCapacityEi.exit11_crit_edge, label %54

._ZN6icu_776number4impl15DecimalQuantity14ensureCapacityEi.exit11_crit_edge: ; preds = %51
  %.pre14 = load ptr, ptr %30, align 8, !tbaa !26
  br label %_ZN6icu_776number4impl15DecimalQuantity14ensureCapacityEi.exit11

54:                                               ; preds = %51
  %55 = shl nuw nsw i32 %52, 1
  %56 = zext nneg i32 %55 to i64
  %57 = tail call noalias ptr @uprv_malloc_77(i64 noundef %56) #27
  %58 = load ptr, ptr %30, align 8, !tbaa !26
  %59 = sext i32 %53 to i64
  tail call void @llvm.memcpy.p0.p0.i64(ptr align 1 %57, ptr align 1 %58, i64 %59, i1 false)
  %60 = getelementptr inbounds i8, ptr %57, i64 %59
  %61 = sub nsw i32 %52, %53
  %62 = sext i32 %61 to i64
  tail call void @llvm.memset.p0.i64(ptr align 1 %60, i8 0, i64 %62, i1 false)
  tail call void @uprv_free_77(ptr noundef %58)
  store ptr %57, ptr %30, align 8, !tbaa !26
  store i32 %55, ptr %32, align 8, !tbaa !26
  br label %_ZN6icu_776number4impl15DecimalQuantity14ensureCapacityEi.exit11

_ZN6icu_776number4impl15DecimalQuantity14ensureCapacityEi.exit11: ; preds = %._ZN6icu_776number4impl15DecimalQuantity14ensureCapacityEi.exit11_crit_edge, %48, %54
  %63 = phi ptr [ %.pre14, %._ZN6icu_776number4impl15DecimalQuantity14ensureCapacityEi.exit11_crit_edge ], [ %50, %48 ], [ %57, %54 ]
  store i8 1, ptr %4, align 8, !tbaa !22
  %64 = zext nneg i32 %1 to i64
  %65 = getelementptr inbounds nuw i8, ptr %63, i64 %64
  store i8 %2, ptr %65, align 1, !tbaa !26
  br label %77

66:                                               ; preds = %28
  %67 = shl nsw i32 %1, 2
  %68 = getelementptr inbounds nuw i8, ptr %0, i64 48
  %69 = load i64, ptr %68, align 8, !tbaa !26
  %70 = zext i32 %67 to i64
  %71 = shl i64 15, %70
  %72 = xor i64 %71, -1
  %73 = and i64 %69, %72
  %74 = sext i8 %2 to i64
  %75 = shl i64 %74, %70
  %76 = or i64 %73, %75
  store i64 %76, ptr %68, align 8, !tbaa !26
  br label %77

77:                                               ; preds = %_ZN6icu_776number4impl15DecimalQuantity14ensureCapacityEi.exit11, %66, %_ZN6icu_776number4impl15DecimalQuantity14ensureCapacityEi.exit
  ret void
}